target datalayout = "e-m:e-p270:32:32-p271:32:32-p272:64:64-i64:64-i128:128-f80:128-n8:16:32:64-S128"
target triple = "x86_64-pc-linux-gnu"

@destroy_step = internal global i32 0, align 4
@.str.4 = private unnamed_addr constant [14 x i8] c"Got signal %d\00", align 1

; Function Attrs: nounwind uwtable
define internal void @_signal_while_allocating(i32 noundef %0) #0 {
  %2 = alloca i32, align 4
  store i32 %0, ptr %2, align 4
  br label %3

3:                                                ; preds = %1
  br label %4

4:                                                ; preds = %3
  %5 = call i32 @get_log_level()
  %6 = icmp sge i32 %5, 5
  br i1 %6, label %7, label %9

7:                                                ; preds = %4
  %8 = load i32, ptr %2, align 4
  call void (i32, ptr, ...) @log_var(i32 noundef 5, ptr noundef @.str.4, i32 noundef %8)
  br label %9

9:                                                ; preds = %7, %4
  br label %10

10:                                               ; preds = %9
  br label %11

11:                                               ; preds = %10
  %12 = load i32, ptr %2, align 4
  %13 = icmp eq i32 %12, 18
  br i1 %13, label %14, label %15

14:                                               ; preds = %11
  br label %17

15:                                               ; preds = %11
  %16 = load i32, ptr %2, align 4
  store i32 %16, ptr @destroy_step, align 4
  br label %17

17:                                               ; preds = %15, %14
  ret void
}