; Function Attrs: nounwind uwtable
define internal void @_signal_while_allocating(i32 noundef %0) #0 {
  %2 = tail call i32 @get_log_level() #8
  %3 = icmp sgt i32 %2, 4
  br i1 %3, label %4, label %5

4:                                                ; preds = %1
  tail call void (i32, ptr, ...) @log_var(i32 noundef 5, ptr noundef nonnull @.str.4, i32 noundef %0) #8
  br label %5

5:                                                ; preds = %4, %1
  %6 = icmp eq i32 %0, 18
  br i1 %6, label %8, label %7

7:                                                ; preds = %5
  store i32 %0, ptr @destroy_step, align 4
  br label %8

8:                                                ; preds = %5, %7
  ret void
}